; Function Attrs: mustprogress nounwind uwtable
define dso_local void @_ZNK4llvm13PMDataManager16dumpPreservedSetEPKNS_4PassE(ptr nocapture noundef nonnull readonly align 8 dereferenceable(380) %0, ptr noundef %1) local_unnamed_addr #0 align 2 {
  %3 = alloca %"class.llvm::AnalysisUsage", align 8
  %.val.i = load i32, ptr getelementptr inbounds (i8, ptr @_ZL13PassDebugging, i64 128), align 8
  %4 = icmp slt i32 %.val.i, 4
  br i1 %4, label %16, label %5

5:                                                ; preds = %2
  %6 = getelementptr inbounds i8, ptr %3, i64 16
  call void @_ZN4llvm15SmallVectorBaseIjEC2EPvm(ptr noundef nonnull align 8 dereferenceable(16) %3, ptr noundef nonnull %6, i64 noundef 8) #27
  %7 = getelementptr inbounds nuw i8, ptr %3, i64 80
  %8 = getelementptr inbounds i8, ptr %3, i64 96
  call void @_ZN4llvm15SmallVectorBaseIjEC2EPvm(ptr noundef nonnull align 8 dereferenceable(16) %7, ptr noundef nonnull %8, i64 noundef 2) #27
  %9 = getelementptr inbounds nuw i8, ptr %3, i64 112
  %10 = getelementptr inbounds i8, ptr %3, i64 128
  call void @_ZN4llvm15SmallVectorBaseIjEC2EPvm(ptr noundef nonnull align 8 dereferenceable(16) %9, ptr noundef nonnull %10, i64 noundef 2) #27
  %11 = getelementptr inbounds nuw i8, ptr %3, i64 144
  %12 = getelementptr inbounds i8, ptr %3, i64 160
  call void @_ZN4llvm15SmallVectorBaseIjEC2EPvm(ptr noundef nonnull align 8 dereferenceable(16) %11, ptr noundef nonnull %12, i64 noundef 0) #27
  store i8 0, ptr %12, align 8
  %13 = load ptr, ptr %1, align 8
  %14 = getelementptr inbounds i8, ptr %13, i64 80
  %15 = load ptr, ptr %14, align 8
  call void %15(ptr noundef nonnull align 8 dereferenceable(28) %1, ptr noundef nonnull align 8 dereferenceable(161) %3) #27
  call void @_ZNK4llvm13PMDataManager17dumpAnalysisUsageENS_9StringRefEPKNS_4PassERKNS_15SmallVectorImplIPKvEE(ptr noundef nonnull align 8 dereferenceable(380) %0, ptr nonnull @.str.66, i64 9, ptr noundef nonnull %1, ptr noundef nonnull align 8 dereferenceable(16) %9)
  call void @_ZN4llvm13AnalysisUsageD2Ev(ptr noundef nonnull align 8 dereferenceable(161) %3) #27
  br label %16

16:                                               ; preds = %2, %5
  ret void
}